; Function Attrs: mustprogress nofree norecurse nosync nounwind willreturn memory(argmem: read) uwtable
define internal { ptr, i64 } @_ZNK7rocksdb12_GLOBAL__N_121CappedPrefixTransform9TransformERKNS_5SliceE(ptr nocapture noundef nonnull readonly align 8 dereferenceable(72) %this, ptr nocapture noundef nonnull readonly align 8 dereferenceable(16) %src) unnamed_addr #7 align 2 {
entry:
  %0 = load ptr, ptr %src, align 8
  %cap_len_ = getelementptr inbounds i8, ptr %this, i64 32
  %size_.i = getelementptr inbounds i8, ptr %src, i64 8
  %1 = load i64, ptr %size_.i, align 8
  %2 = load i64, ptr %cap_len_, align 8
  %.sroa.speculated = tail call i64 @llvm.umin.i64(i64 %1, i64 %2)
  %.fca.0.insert = insertvalue { ptr, i64 } poison, ptr %0, 0
  %.fca.1.insert = insertvalue { ptr, i64 } %.fca.0.insert, i64 %.sroa.speculated, 1
  ret { ptr, i64 } %.fca.1.insert
}